ccollections
defaultdict
p0
(c__builtin__
int
p1
tp2
Rp3
S'1789'
p4
I174
sS'1765'
p5
I160
sS'1780'
p6
I170
sS'1782'
p7
I171
sS'1783'
p8
I172
sS'1761'
p9
I157
sS'1787'
p10
I173
sS'1753'
p11
I153
sS'1546'
p12
I52
sS'1774'
p13
I166
sS'1545'
p14
I51
sS'1836'
p15
I199
sS'1770'
p16
I164
sS'1772'
p17
I165
sS'1838'
p18
I201
sS'1727'
p19
I135
sS'1779'
p20
I169
sS'1778'
p21
I168
sS'1548'
p22
I53
sS'1549'
p23
I54
sS'1695'
p24
I112
sS'1468'
p25
I20
sS'1656'
p26
I94
sS'1465'
p27
I19
sS'1675'
p28
I104
sS'1916'
p29
I237
sS'1461'
p30
I18
sS'1673'
p31
I102
sS'1700'
p32
I116
sS'1799'
p33
I181
sS'1798'
p34
I180
sS'1759'
p35
I155
sS'1792'
p36
I176
sS'1912'
p37
I235
sS'1790'
p38
I175
sS'1797'
p39
I179
sS'1796'
p40
I178
sS'1795'
p41
I177
sS'1757'
p42
I154
sS'1493'
p43
I30
sS'1495'
p44
I31
sS'1751'
p45
I151
sS'1498'
p46
I32
sS'1704'
p47
I118
sS'1551'
p48
I55
sS'1702'
p49
I117
sS'1552'
p50
I56
sS'1555'
p51
I57
sS'1705'
p52
I119
sS'1706'
p53
I120
sS'1707'
p54
I121
sS'1708'
p55
I122
sS'1558'
p56
I58
sS'1821'
p57
I193
sS'1820'
p58
I192
sS'1822'
p59
I194
sS'1750'
p60
I150
sS'1668'
p61
I100
sS'1666'
p62
I99
sS'1665'
p63
I98
sS'1664'
p64
I97
sS'1663'
p65
I96
sS'1661'
p66
I95
sS'1768'
p67
I163
sS'1483'
p68
I27
sS'1482'
p69
I26
sS'1922'
p70
I241
sS'1480'
p71
I25
sS'1486'
p72
I28
sS'1709'
p73
I123
sS'1489'
p74
I29
sS'1819'
p75
I191
sS'1713'
p76
I127
sS'1712'
p77
I126
sS'1711'
p78
I125
sS'1710'
p79
I124
sS'1715'
p80
I129
sS'1714'
p81
I128
sS'1851'
p82
I204
sS'1719'
p83
I131
sS'1718'
p84
I130
sS'1854'
p85
I206
sS'1855'
p86
I207
sS'1857'
p87
I208
sS'1524'
p88
I44
sS'1525'
p89
I45
sS'1520'
p90
I41
sS'1521'
p91
I42
sS'1522'
p92
I43
sS'1653'
p93
I93
sS'1650'
p94
I92
sS'1528'
p95
I46
sS'1749'
p96
I149
sS'1739'
p97
I142
sS'1741'
p98
I143
sS'1833'
p99
I197
sS'1831'
p100
I196
sS'1837'
p101
I200
sS'1437'
p102
I8
sS'1434'
p103
I6
sS'1435'
p104
I7
sS'1641'
p105
I87
sS'1430'
p106
I4
sS'1431'
p107
I5
sS'1843'
p108
I202
sS'1458'
p109
I16
sS'1637'
p110
I86
sS'1649'
p111
I91
sS'1648'
p112
I90
sS'1720'
p113
I132
sS'1439'
p114
I9
sS'1731'
p115
I137
sS'1533'
p116
I48
sS'1532'
p117
I47
sS'1730'
p118
I136
sS'1539'
p119
I50
sS'1538'
p120
I49
sS'1888'
p121
I221
sS'1877'
p122
I216
sS'1872'
p123
I215
sS'1908'
p124
I231
sS'1909'
p125
I232
sS'1906'
p126
I229
sS'1907'
p127
I230
sS'1902'
p128
I228
sS'1682'
p129
I107
sS'1630'
p130
I84
sS'1738'
p131
I141
sS'1632'
p132
I85
sS'1427'
p133
I1
sS'1426'
p134
I0
sS'1429'
p135
I3
sS'1428'
p136
I2
sS'1580'
p137
I69
sS'1732'
p138
I138
sS'1735'
p139
I139
sS'1737'
p140
I140
sS'1585'
p141
I70
sS'1502'
p142
I35
sS'1503'
p143
I36
sS'1500'
p144
I33
sS'1501'
p145
I34
sS'1847'
p146
I203
sS'1504'
p147
I37
sS'1807'
p148
I187
sS'1674'
p149
I103
sS'1647'
p150
I89
sS'1861'
p151
I211
sS'1594'
p152
I72
sS'1863'
p153
I212
sS'1763'
p154
I158
sS'1865'
p155
I213
sS'1592'
p156
I71
sS'1911'
p157
I234
sS'1910'
p158
I233
sS'1913'
p159
I236
sS'1684'
p160
I108
sS'1917'
p161
I238
sS'1802'
p162
I184
sS'1920'
p163
I240
sS'1643'
p164
I88
sS'1625'
p165
I82
sS'1852'
p166
I205
sS'1866'
p167
I214
sS'1670'
p168
I101
sS'1628'
p169
I83
sS'1457'
p170
I15
sS'1519'
p171
I40
sS'1451'
p172
I12
sS'1452'
p173
I13
sS'1453'
p174
I14
sS'1744'
p175
I145
sS'1745'
p176
I146
sS'1746'
p177
I147
sS'1516'
p178
I39
sS'1511'
p179
I38
sS'1459'
p180
I17
sS'1743'
p181
I144
sS'1722'
p182
I133
sS'1723'
p183
I134
sS'1898'
p184
I227
sS'1895'
p185
I225
sS'1748'
p186
I148
sS'1897'
p187
I226
sS'1890'
p188
I223
sS'1892'
p189
I224
sS'1815'
p190
I189
sS'1618'
p191
I81
sS'1616'
p192
I79
sS'1617'
p193
I80
sS'1818'
p194
I190
sS'1613'
p195
I78
sS'1696'
p196
I113
sS'1697'
p197
I114
sS'1471'
p198
I21
sS'1443'
p199
I11
sS'1441'
p200
I10
sS'1824'
p201
I195
sS'1560'
p202
I59
sS'1562'
p203
I60
sS'1563'
p204
I61
sS'1564'
p205
I62
sS'1752'
p206
I152
sS'1698'
p207
I115
sS'1567'
p208
I63
sS'1858'
p209
I209
sS'1859'
p210
I210
sS'1889'
p211
I222
sS'1688'
p212
I111
sS'1887'
p213
I220
sS'1885'
p214
I219
sS'1883'
p215
I218
sS'1880'
p216
I217
sS'1609'
p217
I77
sS'1919'
p218
I239
sS'1805'
p219
I186
sS'1479'
p220
I24
sS'1803'
p221
I185
sS'1775'
p222
I167
sS'1801'
p223
I183
sS'1800'
p224
I182
sS'1601'
p225
I73
sS'1835'
p226
I198
sS'1603'
p227
I74
sS'1604'
p228
I75
sS'1809'
p229
I188
sS'1606'
p230
I76
sS'1681'
p231
I106
sS'1680'
p232
I105
sS'1579'
p233
I68
sS'1578'
p234
I67
sS'1685'
p235
I109
sS'1477'
p236
I23
sS'1687'
p237
I110
sS'1475'
p238
I22
sS'1572'
p239
I65
sS'1760'
p240
I156
sS'1570'
p241
I64
sS'1766'
p242
I161
sS'1767'
p243
I162
sS'1764'
p244
I159
sS'1574'
p245
I66
s.